; Function Attrs: mustprogress nounwind uwtable
define dso_local noundef i32 @_ZN4llvm13DFAPacketizer16getUsedResourcesEj(ptr noundef nonnull readonly align 8 captures(none) dereferenceable(72) %0, i32 noundef %1) local_unnamed_addr #0 align 2 {
  %3 = getelementptr inbounds nuw i8, ptr %0, i64 24
  %4 = load ptr, ptr %3, align 8
  %5 = tail call { ptr, i64 } @_ZN4llvm8internal14NfaTranscriber8getPathsEv(ptr noundef nonnull align 8 dereferenceable(400) %4)
  %6 = extractvalue { ptr, i64 } %5, 0
  %7 = icmp eq i32 %1, 0
  br i1 %7, label %8, label %11

8:                                                ; preds = %2
  %9 = load ptr, ptr %6, align 8
  %10 = load i64, ptr %9, align 8
  br label %21

11:                                               ; preds = %2
  %12 = zext i32 %1 to i64
  %13 = load ptr, ptr %6, align 8
  %14 = getelementptr inbounds nuw i64, ptr %13, i64 %12
  %15 = load i64, ptr %14, align 8
  %16 = add i32 %1, -1
  %17 = zext i32 %16 to i64
  %18 = getelementptr inbounds nuw i64, ptr %13, i64 %17
  %19 = load i64, ptr %18, align 8
  %20 = xor i64 %19, %15
  br label %21

21:                                               ; preds = %11, %8
  %.0.in = phi i64 [ %10, %8 ], [ %20, %11 ]
  %.0 = trunc i64 %.0.in to i32
  ret i32 %.0
}